target datalayout = "e-m:e-p270:32:32-p271:32:32-p272:64:64-i64:64-i128:128-f80:128-n8:16:32:64-S128"
target triple = "x86_64-pc-linux-gnu"

%struct.raxIterator = type { i32, ptr, ptr, ptr, i64, i64, [128 x i8], ptr, %struct.raxStack, ptr }
%struct.raxStack = type { ptr, i64, i64, [32 x ptr], i32 }
%struct.client = type { i64, i64, ptr, i8, i8, i8, i8, i32, ptr, ptr, ptr, ptr, ptr, i64, i64, i32, ptr, i32, i32, ptr, i64, ptr, ptr, ptr, ptr, ptr, i32, i32, i64, ptr, i64, ptr, i64, i64, i64, i32, ptr, i64, i64, i32, i32, i32, i32, i64, i64, ptr, i64, i64, i64, i64, i64, i64, i64, i64, [41 x i8], i32, ptr, i32, i32, i64, %struct.multiState, %struct.blockingState, i64, ptr, ptr, ptr, ptr, ptr, ptr, ptr, ptr, ptr, ptr, ptr, ptr, ptr, ptr, i64, ptr, i64, i32, ptr, ptr, ptr, i64, %struct.listNode, i64, i64, i32, i64, ptr }
%struct.multiState = type { ptr, i32, i32, i32, i64, i32 }
%struct.blockingState = type { i32, i64, i32, ptr, i32, i32, i64, ptr, ptr, i64 }
%struct.listNode = type { ptr, ptr, ptr }
%struct.redisObject = type { i32, i32, ptr }
%struct.sdshdr8 = type { i8, i8, i8, [0 x i8] }
%struct.sdshdr16 = type <{ i16, i16, i8, [0 x i8] }>
%struct.sdshdr32 = type <{ i32, i32, i8, [0 x i8] }>
%struct.sdshdr64 = type <{ i64, i64, i8, [0 x i8] }>

@.str = private unnamed_addr constant [2 x i8] c"^\00", align 1
@.str.3 = private unnamed_addr constant [98 x i8] c"Prefix '%s' overlaps with an existing prefix '%s'. Prefixes for a single client must not overlap.\00", align 1
@.str.4 = private unnamed_addr constant [103 x i8] c"Prefix '%s' overlaps with another provided prefix '%s'. Prefixes for a single client must not overlap.\00", align 1

; Function Attrs: nounwind uwtable
define internal i32 @stringCheckPrefix(ptr noundef %0, i64 noundef %1, ptr noundef %2, i64 noundef %3) #0 {
  %5 = alloca ptr, align 8
  %6 = alloca i64, align 8
  %7 = alloca ptr, align 8
  %8 = alloca i64, align 8
  %9 = alloca i64, align 8
  store ptr %0, ptr %5, align 8, !tbaa !71
  store i64 %1, ptr %6, align 8, !tbaa !67
  store ptr %2, ptr %7, align 8, !tbaa !71
  store i64 %3, ptr %8, align 8, !tbaa !67
  call void @llvm.lifetime.start.p0(i64 8, ptr %9) #10
  %10 = load i64, ptr %6, align 8, !tbaa !67
  %11 = load i64, ptr %8, align 8, !tbaa !67
  %12 = icmp ult i64 %10, %11
  br i1 %12, label %13, label %15

13:                                               ; preds = %4
  %14 = load i64, ptr %6, align 8, !tbaa !67
  br label %17

15:                                               ; preds = %4
  %16 = load i64, ptr %8, align 8, !tbaa !67
  br label %17

17:                                               ; preds = %15, %13
  %18 = phi i64 [ %14, %13 ], [ %16, %15 ]
  store i64 %18, ptr %9, align 8, !tbaa !67
  %19 = load ptr, ptr %5, align 8, !tbaa !71
  %20 = load ptr, ptr %7, align 8, !tbaa !71
  %21 = load i64, ptr %9, align 8, !tbaa !67
  %22 = call i32 @memcmp(ptr noundef %19, ptr noundef %20, i64 noundef %21) #12
  %23 = icmp eq i32 %22, 0
  %24 = zext i1 %23 to i32
  call void @llvm.lifetime.end.p0(i64 8, ptr %9) #10
  ret i32 %24
}

; Function Attrs: inlinehint nounwind uwtable
define internal i64 @sdslen(ptr noundef %0) #5 {
  %2 = alloca i64, align 8
  %3 = alloca ptr, align 8
  %4 = alloca i8, align 1
  %5 = alloca i32, align 4
  store ptr %0, ptr %3, align 8, !tbaa !71
  call void @llvm.lifetime.start.p0(i64 1, ptr %4) #10
  %6 = load ptr, ptr %3, align 8, !tbaa !71
  %7 = getelementptr inbounds i8, ptr %6, i64 -1
  %8 = load i8, ptr %7, align 1, !tbaa !75
  store i8 %8, ptr %4, align 1, !tbaa !75
  %9 = load i8, ptr %4, align 1, !tbaa !75
  %10 = zext i8 %9 to i32
  %11 = and i32 %10, 7
  switch i32 %11, label %40 [
    i32 0, label %12
    i32 1, label %17
    i32 2, label %23
    i32 3, label %29
    i32 4, label %35
  ]

12:                                               ; preds = %1
  %13 = load i8, ptr %4, align 1, !tbaa !75
  %14 = zext i8 %13 to i32
  %15 = ashr i32 %14, 3
  %16 = sext i32 %15 to i64
  store i64 %16, ptr %2, align 8
  store i32 1, ptr %5, align 4
  br label %41

17:                                               ; preds = %1
  %18 = load ptr, ptr %3, align 8, !tbaa !71
  %19 = getelementptr inbounds i8, ptr %18, i64 -3
  %20 = getelementptr inbounds nuw %struct.sdshdr8, ptr %19, i32 0, i32 0
  %21 = load i8, ptr %20, align 1, !tbaa !75
  %22 = zext i8 %21 to i64
  store i64 %22, ptr %2, align 8
  store i32 1, ptr %5, align 4
  br label %41

23:                                               ; preds = %1
  %24 = load ptr, ptr %3, align 8, !tbaa !71
  %25 = getelementptr inbounds i8, ptr %24, i64 -5
  %26 = getelementptr inbounds nuw %struct.sdshdr16, ptr %25, i32 0, i32 0
  %27 = load i16, ptr %26, align 1, !tbaa !76
  %28 = zext i16 %27 to i64
  store i64 %28, ptr %2, align 8
  store i32 1, ptr %5, align 4
  br label %41

29:                                               ; preds = %1
  %30 = load ptr, ptr %3, align 8, !tbaa !71
  %31 = getelementptr inbounds i8, ptr %30, i64 -9
  %32 = getelementptr inbounds nuw %struct.sdshdr32, ptr %31, i32 0, i32 0
  %33 = load i32, ptr %32, align 1, !tbaa !37
  %34 = zext i32 %33 to i64
  store i64 %34, ptr %2, align 8
  store i32 1, ptr %5, align 4
  br label %41

35:                                               ; preds = %1
  %36 = load ptr, ptr %3, align 8, !tbaa !71
  %37 = getelementptr inbounds i8, ptr %36, i64 -17
  %38 = getelementptr inbounds nuw %struct.sdshdr64, ptr %37, i32 0, i32 0
  %39 = load i64, ptr %38, align 1, !tbaa !67
  store i64 %39, ptr %2, align 8
  store i32 1, ptr %5, align 4
  br label %41

40:                                               ; preds = %1
  store i64 0, ptr %2, align 8
  store i32 1, ptr %5, align 4
  br label %41

41:                                               ; preds = %40, %35, %29, %23, %17, %12
  call void @llvm.lifetime.end.p0(i64 1, ptr %4) #10
  %42 = load i64, ptr %2, align 8
  ret i64 %42
}

; Function Attrs: nounwind uwtable
define dso_local i32 @checkPrefixCollisionsOrReply(ptr noundef %0, ptr noundef %1, i64 noundef %2) #0 {
  %4 = alloca i32, align 4
  %5 = alloca ptr, align 8
  %6 = alloca ptr, align 8
  %7 = alloca i64, align 8
  %8 = alloca i64, align 8
  %9 = alloca i32, align 4
  %10 = alloca %struct.raxIterator, align 8
  %11 = alloca ptr, align 8
  %12 = alloca i64, align 8
  store ptr %0, ptr %5, align 8, !tbaa !5
  store ptr %1, ptr %6, align 8, !tbaa !66
  store i64 %2, ptr %7, align 8, !tbaa !67
  call void @llvm.lifetime.start.p0(i64 8, ptr %8) #10
  store i64 0, ptr %8, align 8, !tbaa !67
  br label %13

13:                                               ; preds = %131, %3
  %14 = load i64, ptr %8, align 8, !tbaa !67
  %15 = load i64, ptr %7, align 8, !tbaa !67
  %16 = icmp ult i64 %14, %15
  br i1 %16, label %18, label %17

17:                                               ; preds = %13
  store i32 2, ptr %9, align 4
  br label %134

18:                                               ; preds = %13
  %19 = load ptr, ptr %5, align 8, !tbaa !5
  %20 = getelementptr inbounds nuw %struct.client, ptr %19, i32 0, i32 78
  %21 = load ptr, ptr %20, align 8, !tbaa !30
  %22 = icmp ne ptr %21, null
  br i1 %22, label %23, label %71

23:                                               ; preds = %18
  call void @llvm.lifetime.start.p0(i64 480, ptr %10) #10
  %24 = load ptr, ptr %5, align 8, !tbaa !5
  %25 = getelementptr inbounds nuw %struct.client, ptr %24, i32 0, i32 78
  %26 = load ptr, ptr %25, align 8, !tbaa !30
  call void @raxStart(ptr noundef %10, ptr noundef %26)
  %27 = call i32 @raxSeek(ptr noundef %10, ptr noundef @.str, ptr noundef null, i64 noundef 0)
  br label %28

28:                                               ; preds = %66, %23
  %29 = call i32 @raxNext(ptr noundef %10)
  %30 = icmp ne i32 %29, 0
  br i1 %30, label %31, label %67

31:                                               ; preds = %28
  %32 = getelementptr inbounds nuw %struct.raxIterator, ptr %10, i32 0, i32 2
  %33 = load ptr, ptr %32, align 8, !tbaa !32
  %34 = getelementptr inbounds nuw %struct.raxIterator, ptr %10, i32 0, i32 4
  %35 = load i64, ptr %34, align 8, !tbaa !36
  %36 = load ptr, ptr %6, align 8, !tbaa !66
  %37 = load i64, ptr %8, align 8, !tbaa !67
  %38 = getelementptr inbounds nuw ptr, ptr %36, i64 %37
  %39 = load ptr, ptr %38, align 8, !tbaa !68
  %40 = getelementptr inbounds nuw %struct.redisObject, ptr %39, i32 0, i32 2
  %41 = load ptr, ptr %40, align 8, !tbaa !69
  %42 = load ptr, ptr %6, align 8, !tbaa !66
  %43 = load i64, ptr %8, align 8, !tbaa !67
  %44 = getelementptr inbounds nuw ptr, ptr %42, i64 %43
  %45 = load ptr, ptr %44, align 8, !tbaa !68
  %46 = getelementptr inbounds nuw %struct.redisObject, ptr %45, i32 0, i32 2
  %47 = load ptr, ptr %46, align 8, !tbaa !69
  %48 = call i64 @sdslen(ptr noundef %47)
  %49 = call i32 @stringCheckPrefix(ptr noundef %33, i64 noundef %35, ptr noundef %41, i64 noundef %48)
  %50 = icmp ne i32 %49, 0
  br i1 %50, label %51, label %66

51:                                               ; preds = %31
  call void @llvm.lifetime.start.p0(i64 8, ptr %11) #10
  %52 = getelementptr inbounds nuw %struct.raxIterator, ptr %10, i32 0, i32 2
  %53 = load ptr, ptr %52, align 8, !tbaa !32
  %54 = getelementptr inbounds nuw %struct.raxIterator, ptr %10, i32 0, i32 4
  %55 = load i64, ptr %54, align 8, !tbaa !36
  %56 = call ptr @sdsnewlen(ptr noundef %53, i64 noundef %55)
  store ptr %56, ptr %11, align 8, !tbaa !71
  %57 = load ptr, ptr %5, align 8, !tbaa !5
  %58 = load ptr, ptr %6, align 8, !tbaa !66
  %59 = load i64, ptr %8, align 8, !tbaa !67
  %60 = getelementptr inbounds nuw ptr, ptr %58, i64 %59
  %61 = load ptr, ptr %60, align 8, !tbaa !68
  %62 = getelementptr inbounds nuw %struct.redisObject, ptr %61, i32 0, i32 2
  %63 = load ptr, ptr %62, align 8, !tbaa !69
  %64 = load ptr, ptr %11, align 8, !tbaa !71
  call void (ptr, ptr, ...) @addReplyErrorFormat(ptr noundef %57, ptr noundef @.str.3, ptr noundef %63, ptr noundef %64)
  %65 = load ptr, ptr %11, align 8, !tbaa !71
  call void @sdsfree(ptr noundef %65)
  call void @raxStop(ptr noundef %10)
  store i32 0, ptr %4, align 4
  store i32 1, ptr %9, align 4
  call void @llvm.lifetime.end.p0(i64 8, ptr %11) #10
  br label %68

66:                                               ; preds = %31
  br label %28, !llvm.loop !72

67:                                               ; preds = %28
  call void @raxStop(ptr noundef %10)
  store i32 0, ptr %9, align 4
  br label %68

68:                                               ; preds = %67, %51
  call void @llvm.lifetime.end.p0(i64 480, ptr %10) #10
  %69 = load i32, ptr %9, align 4
  switch i32 %69, label %134 [
    i32 0, label %70
  ]

70:                                               ; preds = %68
  br label %71

71:                                               ; preds = %70, %18
  call void @llvm.lifetime.start.p0(i64 8, ptr %12) #10
  %72 = load i64, ptr %8, align 8, !tbaa !67
  %73 = add i64 %72, 1
  store i64 %73, ptr %12, align 8, !tbaa !67
  br label %74

74:                                               ; preds = %125, %71
  %75 = load i64, ptr %12, align 8, !tbaa !67
  %76 = load i64, ptr %7, align 8, !tbaa !67
  %77 = icmp ult i64 %75, %76
  br i1 %77, label %79, label %78

78:                                               ; preds = %74
  store i32 7, ptr %9, align 4
  br label %128

79:                                               ; preds = %74
  %80 = load ptr, ptr %6, align 8, !tbaa !66
  %81 = load i64, ptr %8, align 8, !tbaa !67
  %82 = getelementptr inbounds nuw ptr, ptr %80, i64 %81
  %83 = load ptr, ptr %82, align 8, !tbaa !68
  %84 = getelementptr inbounds nuw %struct.redisObject, ptr %83, i32 0, i32 2
  %85 = load ptr, ptr %84, align 8, !tbaa !69
  %86 = load ptr, ptr %6, align 8, !tbaa !66
  %87 = load i64, ptr %8, align 8, !tbaa !67
  %88 = getelementptr inbounds nuw ptr, ptr %86, i64 %87
  %89 = load ptr, ptr %88, align 8, !tbaa !68
  %90 = getelementptr inbounds nuw %struct.redisObject, ptr %89, i32 0, i32 2
  %91 = load ptr, ptr %90, align 8, !tbaa !69
  %92 = call i64 @sdslen(ptr noundef %91)
  %93 = load ptr, ptr %6, align 8, !tbaa !66
  %94 = load i64, ptr %12, align 8, !tbaa !67
  %95 = getelementptr inbounds nuw ptr, ptr %93, i64 %94
  %96 = load ptr, ptr %95, align 8, !tbaa !68
  %97 = getelementptr inbounds nuw %struct.redisObject, ptr %96, i32 0, i32 2
  %98 = load ptr, ptr %97, align 8, !tbaa !69
  %99 = load ptr, ptr %6, align 8, !tbaa !66
  %100 = load i64, ptr %12, align 8, !tbaa !67
  %101 = getelementptr inbounds nuw ptr, ptr %99, i64 %100
  %102 = load ptr, ptr %101, align 8, !tbaa !68
  %103 = getelementptr inbounds nuw %struct.redisObject, ptr %102, i32 0, i32 2
  %104 = load ptr, ptr %103, align 8, !tbaa !69
  %105 = call i64 @sdslen(ptr noundef %104)
  %106 = call i32 @stringCheckPrefix(ptr noundef %85, i64 noundef %92, ptr noundef %98, i64 noundef %105)
  %107 = icmp ne i32 %106, 0
  br i1 %107, label %108, label %124

108:                                              ; preds = %79
  %109 = load ptr, ptr %5, align 8, !tbaa !5
  %110 = load ptr, ptr %6, align 8, !tbaa !66
  %111 = load i64, ptr %8, align 8, !tbaa !67
  %112 = getelementptr inbounds nuw ptr, ptr %110, i64 %111
  %113 = load ptr, ptr %112, align 8, !tbaa !68
  %114 = getelementptr inbounds nuw %struct.redisObject, ptr %113, i32 0, i32 2
  %115 = load ptr, ptr %114, align 8, !tbaa !69
  %116 = load ptr, ptr %6, align 8, !tbaa !66
  %117 = load i64, ptr %12, align 8, !tbaa !67
  %118 = getelementptr inbounds nuw ptr, ptr %116, i64 %117
  %119 = load ptr, ptr %118, align 8, !tbaa !68
  %120 = getelementptr inbounds nuw %struct.redisObject, ptr %119, i32 0, i32 2
  %121 = load ptr, ptr %120, align 8, !tbaa !69
  call void (ptr, ptr, ...) @addReplyErrorFormat(ptr noundef %109, ptr noundef @.str.4, ptr noundef %115, ptr noundef %121)
  %122 = load i64, ptr %8, align 8, !tbaa !67
  %123 = trunc i64 %122 to i32
  store i32 %123, ptr %4, align 4
  store i32 1, ptr %9, align 4
  br label %128

124:                                              ; preds = %79
  br label %125

125:                                              ; preds = %124
  %126 = load i64, ptr %12, align 8, !tbaa !67
  %127 = add i64 %126, 1
  store i64 %127, ptr %12, align 8, !tbaa !67
  br label %74, !llvm.loop !73

128:                                              ; preds = %108, %78
  call void @llvm.lifetime.end.p0(i64 8, ptr %12) #10
  %129 = load i32, ptr %9, align 4
  switch i32 %129, label %134 [
    i32 7, label %130
  ]

130:                                              ; preds = %128
  br label %131

131:                                              ; preds = %130
  %132 = load i64, ptr %8, align 8, !tbaa !67
  %133 = add i64 %132, 1
  store i64 %133, ptr %8, align 8, !tbaa !67
  br label %13, !llvm.loop !74

134:                                              ; preds = %128, %68, %17
  call void @llvm.lifetime.end.p0(i64 8, ptr %8) #10
  %135 = load i32, ptr %9, align 4
  switch i32 %135, label %139 [
    i32 2, label %136
    i32 1, label %137
  ]

136:                                              ; preds = %134
  store i32 1, ptr %4, align 4
  br label %137

137:                                              ; preds = %136, %134
  %138 = load i32, ptr %4, align 4
  ret i32 %138

139:                                              ; preds = %134
  unreachable
}