; Function Attrs: nounwind uwtable
define dso_local i32 @checkPrefixCollisionsOrReply(ptr noundef %0, ptr noundef readonly captures(none) %1, i64 noundef %2) local_unnamed_addr #0 {
  %4 = alloca %struct.raxIterator, align 8
  %.not5767.not = icmp eq i64 %2, 0
  br i1 %.not5767.not, label %.loopexit58, label %.lr.ph69

.lr.ph69:                                         ; preds = %3
  %5 = getelementptr inbounds nuw i8, ptr %0, i64 680
  %6 = getelementptr inbounds nuw i8, ptr %4, i64 16
  %7 = getelementptr inbounds nuw i8, ptr %4, i64 32
  br label %8

.loopexit:                                        ; preds = %65, %49
  %exitcond76.not = icmp eq i64 %50, %2
  br i1 %exitcond76.not, label %.loopexit58, label %8

8:                                                ; preds = %.lr.ph69, %.loopexit
  %.04068 = phi i64 [ 0, %.lr.ph69 ], [ %50, %.loopexit ]
  %9 = load ptr, ptr %5, align 8, !tbaa !30
  %.not = icmp eq ptr %9, null
  br i1 %.not, label %49, label %10

10:                                               ; preds = %8
  call void @llvm.lifetime.start.p0(i64 480, ptr nonnull %4) #9
  call void @raxStart(ptr noundef nonnull %4, ptr noundef nonnull %9) #9
  %11 = call i32 @raxSeek(ptr noundef nonnull %4, ptr noundef nonnull @.str, ptr noundef null, i64 noundef 0) #9
  %12 = getelementptr inbounds nuw ptr, ptr %1, i64 %.04068
  br label %13

13:                                               ; preds = %sdslen.exit, %10
  %14 = call i32 @raxNext(ptr noundef nonnull %4) #9
  %.not42 = icmp eq i32 %14, 0
  br i1 %.not42, label %.thread, label %15

15:                                               ; preds = %13
  %16 = load ptr, ptr %6, align 8, !tbaa !32
  %17 = load i64, ptr %7, align 8, !tbaa !36
  %18 = load ptr, ptr %12, align 8, !tbaa !64
  %19 = getelementptr inbounds nuw i8, ptr %18, i64 8
  %20 = load ptr, ptr %19, align 8, !tbaa !65
  %21 = getelementptr inbounds i8, ptr %20, i64 -1
  %22 = load i8, ptr %21, align 1, !tbaa !67
  %23 = zext i8 %22 to i32
  %24 = and i32 %23, 7
  switch i32 %24, label %sdslen.exit [
    i32 0, label %25
    i32 1, label %28
    i32 2, label %32
    i32 3, label %36
    i32 4, label %40
  ]

25:                                               ; preds = %15
  %26 = lshr i32 %23, 3
  %27 = zext nneg i32 %26 to i64
  br label %sdslen.exit

28:                                               ; preds = %15
  %29 = getelementptr inbounds i8, ptr %20, i64 -3
  %30 = load i8, ptr %29, align 1, !tbaa !67
  %31 = zext i8 %30 to i64
  br label %sdslen.exit

32:                                               ; preds = %15
  %33 = getelementptr inbounds i8, ptr %20, i64 -5
  %34 = load i16, ptr %33, align 1, !tbaa !68
  %35 = zext i16 %34 to i64
  br label %sdslen.exit

36:                                               ; preds = %15
  %37 = getelementptr inbounds i8, ptr %20, i64 -9
  %38 = load i32, ptr %37, align 1, !tbaa !70
  %39 = zext i32 %38 to i64
  br label %sdslen.exit

40:                                               ; preds = %15
  %41 = getelementptr inbounds i8, ptr %20, i64 -17
  %42 = load i64, ptr %41, align 1, !tbaa !71
  br label %sdslen.exit

sdslen.exit:                                      ; preds = %15, %25, %28, %32, %36, %40
  %.0.i = phi i64 [ %42, %40 ], [ %39, %36 ], [ %35, %32 ], [ %31, %28 ], [ %27, %25 ], [ 0, %15 ]
  %43 = call i64 @llvm.umin.i64(i64 %17, i64 %.0.i)
  %bcmp.i = call i32 @bcmp(ptr readonly %16, ptr nonnull readonly %20, i64 %43)
  %.not55 = icmp eq i32 %bcmp.i, 0
  br i1 %.not55, label %44, label %13, !llvm.loop !72

.thread:                                          ; preds = %13
  call void @raxStop(ptr noundef nonnull %4) #9
  call void @llvm.lifetime.end.p0(i64 480, ptr nonnull %4) #9
  br label %49

44:                                               ; preds = %sdslen.exit
  %45 = call ptr @sdsnewlen(ptr noundef %16, i64 noundef %17) #9
  %46 = load ptr, ptr %12, align 8, !tbaa !64
  %47 = getelementptr inbounds nuw i8, ptr %46, i64 8
  %48 = load ptr, ptr %47, align 8, !tbaa !65
  call void (ptr, ptr, ...) @addReplyErrorFormat(ptr noundef %0, ptr noundef nonnull @.str.3, ptr noundef %48, ptr noundef %45) #9
  call void @sdsfree(ptr noundef %45) #9
  call void @raxStop(ptr noundef nonnull %4) #9
  call void @llvm.lifetime.end.p0(i64 480, ptr nonnull %4) #9
  br label %.loopexit58

49:                                               ; preds = %.thread, %8
  %50 = add nuw i64 %.04068, 1
  %.not4565 = icmp ult i64 %50, %2
  br i1 %.not4565, label %.lr.ph, label %.loopexit

.lr.ph:                                           ; preds = %49
  %51 = getelementptr inbounds nuw ptr, ptr %1, i64 %.04068
  %52 = load ptr, ptr %51, align 8, !tbaa !64
  %53 = getelementptr inbounds nuw i8, ptr %52, i64 8
  %54 = load ptr, ptr %53, align 8, !tbaa !65
  %55 = getelementptr inbounds i8, ptr %54, i64 -1
  %56 = load i8, ptr %55, align 1, !tbaa !67
  %57 = zext i8 %56 to i32
  %58 = and i32 %57, 7
  %59 = getelementptr inbounds i8, ptr %54, i64 -17
  %60 = getelementptr inbounds i8, ptr %54, i64 -9
  %61 = getelementptr inbounds i8, ptr %54, i64 -5
  %62 = getelementptr inbounds i8, ptr %54, i64 -3
  %63 = lshr i32 %57, 3
  %64 = zext nneg i32 %63 to i64
  br label %67

65:                                               ; preds = %sdslen.exit49
  %66 = add i64 %.066, 1
  %exitcond.not = icmp eq i64 %66, %2
  br i1 %exitcond.not, label %.loopexit, label %67, !llvm.loop !73

67:                                               ; preds = %.lr.ph, %65
  %.066 = phi i64 [ %50, %.lr.ph ], [ %66, %65 ]
  switch i32 %58, label %sdslen.exit47 [
    i32 0, label %68
    i32 1, label %69
    i32 2, label %72
    i32 3, label %75
    i32 4, label %78
  ]

68:                                               ; preds = %67
  br label %sdslen.exit47

69:                                               ; preds = %67
  %70 = load i8, ptr %62, align 1, !tbaa !67
  %71 = zext i8 %70 to i64
  br label %sdslen.exit47

72:                                               ; preds = %67
  %73 = load i16, ptr %61, align 1, !tbaa !68
  %74 = zext i16 %73 to i64
  br label %sdslen.exit47

75:                                               ; preds = %67
  %76 = load i32, ptr %60, align 1, !tbaa !70
  %77 = zext i32 %76 to i64
  br label %sdslen.exit47

78:                                               ; preds = %67
  %79 = load i64, ptr %59, align 1, !tbaa !71
  br label %sdslen.exit47

sdslen.exit47:                                    ; preds = %67, %68, %69, %72, %75, %78
  %.0.i46 = phi i64 [ %79, %78 ], [ %77, %75 ], [ %74, %72 ], [ %71, %69 ], [ %64, %68 ], [ 0, %67 ]
  %80 = getelementptr inbounds nuw ptr, ptr %1, i64 %.066
  %81 = load ptr, ptr %80, align 8, !tbaa !64
  %82 = getelementptr inbounds nuw i8, ptr %81, i64 8
  %83 = load ptr, ptr %82, align 8, !tbaa !65
  %84 = getelementptr inbounds i8, ptr %83, i64 -1
  %85 = load i8, ptr %84, align 1, !tbaa !67
  %86 = zext i8 %85 to i32
  %87 = and i32 %86, 7
  switch i32 %87, label %sdslen.exit49 [
    i32 0, label %88
    i32 1, label %91
    i32 2, label %95
    i32 3, label %99
    i32 4, label %103
  ]

88:                                               ; preds = %sdslen.exit47
  %89 = lshr i32 %86, 3
  %90 = zext nneg i32 %89 to i64
  br label %sdslen.exit49

91:                                               ; preds = %sdslen.exit47
  %92 = getelementptr inbounds i8, ptr %83, i64 -3
  %93 = load i8, ptr %92, align 1, !tbaa !67
  %94 = zext i8 %93 to i64
  br label %sdslen.exit49

95:                                               ; preds = %sdslen.exit47
  %96 = getelementptr inbounds i8, ptr %83, i64 -5
  %97 = load i16, ptr %96, align 1, !tbaa !68
  %98 = zext i16 %97 to i64
  br label %sdslen.exit49

99:                                               ; preds = %sdslen.exit47
  %100 = getelementptr inbounds i8, ptr %83, i64 -9
  %101 = load i32, ptr %100, align 1, !tbaa !70
  %102 = zext i32 %101 to i64
  br label %sdslen.exit49

103:                                              ; preds = %sdslen.exit47
  %104 = getelementptr inbounds i8, ptr %83, i64 -17
  %105 = load i64, ptr %104, align 1, !tbaa !71
  br label %sdslen.exit49

sdslen.exit49:                                    ; preds = %sdslen.exit47, %88, %91, %95, %99, %103
  %.0.i48 = phi i64 [ %105, %103 ], [ %102, %99 ], [ %98, %95 ], [ %94, %91 ], [ %90, %88 ], [ 0, %sdslen.exit47 ]
  %106 = call i64 @llvm.umin.i64(i64 %.0.i46, i64 %.0.i48)
  %bcmp.i50 = call i32 @bcmp(ptr nonnull readonly %54, ptr nonnull readonly %83, i64 %106)
  %.not56 = icmp eq i32 %bcmp.i50, 0
  br i1 %.not56, label %.thread52, label %65

.thread52:                                        ; preds = %sdslen.exit49
  call void (ptr, ptr, ...) @addReplyErrorFormat(ptr noundef %0, ptr noundef nonnull @.str.4, ptr noundef nonnull %54, ptr noundef nonnull %83) #9
  %107 = trunc i64 %.04068 to i32
  br label %.loopexit58

.loopexit58:                                      ; preds = %.loopexit, %3, %.thread52, %44
  %spec.select = phi i32 [ 0, %44 ], [ %107, %.thread52 ], [ 1, %3 ], [ 1, %.loopexit ]
  ret i32 %spec.select
}